; Function Attrs: mustprogress uwtable
define noundef ptr @_ZN3re29Prefilter10FromStringERKNSt7__cxx1112basic_stringIcSt11char_traitsIcESaIcEEE(ptr noundef nonnull align 8 dereferenceable(32) %str) local_unnamed_addr #0 align 2 personality ptr @__gxx_personality_v0 {
entry:
  %call = tail call noalias noundef nonnull dereferenceable(56) ptr @_Znwm(i64 noundef 56) #17
  invoke void @_ZN3re29PrefilterC1ENS0_2OpE(ptr noundef nonnull align 8 dereferenceable(52) %call, i32 noundef 2)
          to label %invoke.cont unwind label %lpad

invoke.cont:                                      ; preds = %entry
  %atom_ = getelementptr inbounds i8, ptr %call, i64 16
  %call1 = tail call noundef nonnull align 8 dereferenceable(32) ptr @_ZNSt7__cxx1112basic_stringIcSt11char_traitsIcESaIcEEaSERKS4_(ptr noundef nonnull align 8 dereferenceable(32) %atom_, ptr noundef nonnull align 8 dereferenceable(32) %str)
  ret ptr %call

lpad:                                             ; preds = %entry
  %0 = landingpad { ptr, i32 }
          cleanup
  tail call void @_ZdlPv(ptr noundef nonnull %call) #18
  resume { ptr, i32 } %0
}